; Function Attrs: nounwind uwtable
define hidden void @SDL_UnlockSensors() local_unnamed_addr #1 {
  %1 = load i32, ptr @SDL_sensors_locked, align 4
  %2 = add nsw i32 %1, -1
  store i32 %2, ptr @SDL_sensors_locked, align 4
  %.b4 = load i1, ptr @SDL_sensors_initialized, align 1
  %3 = icmp ne i32 %2, 0
  %or.cond = select i1 %.b4, i1 true, i1 %3
  br i1 %or.cond, label %.critedge, label %4

4:                                                ; preds = %0
  %5 = tail call i32 @SDL_GetAtomicInt_REAL(ptr noundef nonnull @SDL_sensor_lock_pending) #9
  %6 = icmp eq i32 %5, 0
  br i1 %6, label %7, label %.critedge

7:                                                ; preds = %4
  %8 = load ptr, ptr @SDL_sensor_lock, align 8
  tail call void @SDL_LockMutex_REAL(ptr noundef %8) #9
  %9 = load ptr, ptr @SDL_sensor_lock, align 8
  tail call void @SDL_UnlockMutex_REAL(ptr noundef %9) #9
  store ptr null, ptr @SDL_sensor_lock, align 8
  tail call void @SDL_UnlockMutex_REAL(ptr noundef %8) #9
  tail call void @SDL_DestroyMutex_REAL(ptr noundef %8) #9
  br label %11

.critedge:                                        ; preds = %0, %4
  %10 = load ptr, ptr @SDL_sensor_lock, align 8
  tail call void @SDL_UnlockMutex_REAL(ptr noundef %10) #9
  br label %11

11:                                               ; preds = %.critedge, %7
  ret void
}